target datalayout = "e-m:e-p270:32:32-p271:32:32-p272:64:64-i64:64-i128:128-f80:128-n8:16:32:64-S128"
target triple = "x86_64-pc-linux-gnu"

%struct.H5O_linfo_t = type { i8, i8, i64, i64, i64, i64, i64 }
%struct.H5G_bt2_ud_common_t = type { ptr, ptr, ptr, i32, i64, ptr, ptr }
%struct.H5G_bt2_ud_rm_t = type { %struct.H5G_bt2_ud_common_t, i8, i64, ptr, i8 }

@.str = private unnamed_addr constant [102 x i8] c"generated/home/dtcxzyw/WorkSpace/Projects/compilers/llvm-opt-benchmark/bench/hdf5/hdf5/src/H5Gdense.c\00", align 1
@H5E_SYM_g = external global i64, align 8
@H5E_CLOSEERROR_g = external global i64, align 8
@.str.8 = private unnamed_addr constant [25 x i8] c"can't close fractal heap\00", align 1
@.str.9 = private unnamed_addr constant [37 x i8] c"can't close v2 B-tree for name index\00", align 1
@H5E_CANTOPENOBJ_g = external global i64, align 8
@.str.15 = private unnamed_addr constant [28 x i8] c"unable to open fractal heap\00", align 1
@.str.17 = private unnamed_addr constant [40 x i8] c"unable to open v2 B-tree for name index\00", align 1
@__func__.H5G__dense_remove = private unnamed_addr constant [18 x i8] c"H5G__dense_remove\00", align 1
@H5E_CANTREMOVE_g = external global i64, align 8
@.str.35 = private unnamed_addr constant [48 x i8] c"unable to remove link from name index v2 B-tree\00", align 1

; Function Attrs: nounwind uwtable
define i32 @H5G__dense_remove(ptr noundef %0, ptr noundef %1, ptr noundef %2, ptr noundef %3) #0 {
  %5 = alloca ptr, align 8
  %6 = alloca ptr, align 8
  %7 = alloca ptr, align 8
  %8 = alloca ptr, align 8
  %9 = alloca ptr, align 8
  %10 = alloca %struct.H5G_bt2_ud_rm_t, align 8
  %11 = alloca ptr, align 8
  %12 = alloca i32, align 4
  %13 = alloca i8, align 1
  store ptr %0, ptr %5, align 8
  store ptr %1, ptr %6, align 8
  store ptr %2, ptr %7, align 8
  store ptr %3, ptr %8, align 8
  store ptr null, ptr %9, align 8
  store ptr null, ptr %11, align 8
  store i32 0, ptr %12, align 4
  store i8 0, ptr %13, align 1
  %14 = load ptr, ptr %5, align 8
  %15 = load ptr, ptr %6, align 8
  %16 = getelementptr inbounds %struct.H5O_linfo_t, ptr %15, i32 0, i32 5
  %17 = load i64, ptr %16, align 8
  %18 = call ptr @H5HF_open(ptr noundef %14, i64 noundef %17)
  store ptr %18, ptr %9, align 8
  %19 = icmp eq ptr null, %18
  br i1 %19, label %20, label %35

20:                                               ; preds = %4
  br label %21

21:                                               ; preds = %20
  br label %22

22:                                               ; preds = %21
  br label %23

23:                                               ; preds = %22
  %24 = load i64, ptr @H5E_SYM_g, align 8
  %25 = load i64, ptr @H5E_CANTOPENOBJ_g, align 8
  %26 = call i32 (ptr, ptr, i32, i64, i64, ptr, ...) @H5E_printf_stack(ptr noundef @.str, ptr noundef @__func__.H5G__dense_remove, i32 noundef 1299, i64 noundef %24, i64 noundef %25, ptr noundef @.str.15)
  br label %27

27:                                               ; preds = %23
  store i8 1, ptr %13, align 1
  %28 = load i8, ptr %13, align 1
  %29 = trunc i8 %28 to i1
  %30 = zext i1 %29 to i8
  store i8 %30, ptr %13, align 1
  br label %31

31:                                               ; preds = %27
  br label %32

32:                                               ; preds = %31
  store i32 -1, ptr %12, align 4
  br label %104

33:                                               ; No predecessors!
  br label %34

34:                                               ; preds = %33
  br label %35

35:                                               ; preds = %34, %4
  %36 = load ptr, ptr %5, align 8
  %37 = load ptr, ptr %6, align 8
  %38 = getelementptr inbounds %struct.H5O_linfo_t, ptr %37, i32 0, i32 6
  %39 = load i64, ptr %38, align 8
  %40 = call ptr @H5B2_open(ptr noundef %36, i64 noundef %39, ptr noundef null)
  store ptr %40, ptr %11, align 8
  %41 = icmp eq ptr null, %40
  br i1 %41, label %42, label %57

42:                                               ; preds = %35
  br label %43

43:                                               ; preds = %42
  br label %44

44:                                               ; preds = %43
  br label %45

45:                                               ; preds = %44
  %46 = load i64, ptr @H5E_SYM_g, align 8
  %47 = load i64, ptr @H5E_CANTOPENOBJ_g, align 8
  %48 = call i32 (ptr, ptr, i32, i64, i64, ptr, ...) @H5E_printf_stack(ptr noundef @.str, ptr noundef @__func__.H5G__dense_remove, i32 noundef 1303, i64 noundef %46, i64 noundef %47, ptr noundef @.str.17)
  br label %49

49:                                               ; preds = %45
  store i8 1, ptr %13, align 1
  %50 = load i8, ptr %13, align 1
  %51 = trunc i8 %50 to i1
  %52 = zext i1 %51 to i8
  store i8 %52, ptr %13, align 1
  br label %53

53:                                               ; preds = %49
  br label %54

54:                                               ; preds = %53
  store i32 -1, ptr %12, align 4
  br label %104

55:                                               ; No predecessors!
  br label %56

56:                                               ; preds = %55
  br label %57

57:                                               ; preds = %56, %35
  %58 = load ptr, ptr %5, align 8
  %59 = getelementptr inbounds %struct.H5G_bt2_ud_rm_t, ptr %10, i32 0, i32 0
  %60 = getelementptr inbounds %struct.H5G_bt2_ud_common_t, ptr %59, i32 0, i32 0
  store ptr %58, ptr %60, align 8
  %61 = load ptr, ptr %9, align 8
  %62 = getelementptr inbounds %struct.H5G_bt2_ud_rm_t, ptr %10, i32 0, i32 0
  %63 = getelementptr inbounds %struct.H5G_bt2_ud_common_t, ptr %62, i32 0, i32 1
  store ptr %61, ptr %63, align 8
  %64 = load ptr, ptr %8, align 8
  %65 = getelementptr inbounds %struct.H5G_bt2_ud_rm_t, ptr %10, i32 0, i32 0
  %66 = getelementptr inbounds %struct.H5G_bt2_ud_common_t, ptr %65, i32 0, i32 2
  store ptr %64, ptr %66, align 8
  %67 = load ptr, ptr %8, align 8
  %68 = load ptr, ptr %8, align 8
  %69 = call i64 @strlen(ptr noundef %68) #7
  %70 = call i32 @H5_checksum_lookup3(ptr noundef %67, i64 noundef %69, i32 noundef 0)
  %71 = getelementptr inbounds %struct.H5G_bt2_ud_rm_t, ptr %10, i32 0, i32 0
  %72 = getelementptr inbounds %struct.H5G_bt2_ud_common_t, ptr %71, i32 0, i32 3
  store i32 %70, ptr %72, align 8
  %73 = getelementptr inbounds %struct.H5G_bt2_ud_rm_t, ptr %10, i32 0, i32 0
  %74 = getelementptr inbounds %struct.H5G_bt2_ud_common_t, ptr %73, i32 0, i32 5
  store ptr null, ptr %74, align 8
  %75 = getelementptr inbounds %struct.H5G_bt2_ud_rm_t, ptr %10, i32 0, i32 0
  %76 = getelementptr inbounds %struct.H5G_bt2_ud_common_t, ptr %75, i32 0, i32 6
  store ptr null, ptr %76, align 8
  %77 = getelementptr inbounds %struct.H5G_bt2_ud_rm_t, ptr %10, i32 0, i32 1
  store i8 1, ptr %77, align 8
  %78 = load ptr, ptr %6, align 8
  %79 = getelementptr inbounds %struct.H5O_linfo_t, ptr %78, i32 0, i32 3
  %80 = load i64, ptr %79, align 8
  %81 = getelementptr inbounds %struct.H5G_bt2_ud_rm_t, ptr %10, i32 0, i32 2
  store i64 %80, ptr %81, align 8
  %82 = load ptr, ptr %7, align 8
  %83 = getelementptr inbounds %struct.H5G_bt2_ud_rm_t, ptr %10, i32 0, i32 3
  store ptr %82, ptr %83, align 8
  %84 = getelementptr inbounds %struct.H5G_bt2_ud_rm_t, ptr %10, i32 0, i32 4
  store i8 1, ptr %84, align 8
  %85 = load ptr, ptr %11, align 8
  %86 = call i32 @H5B2_remove(ptr noundef %85, ptr noundef %10, ptr noundef @H5G__dense_remove_bt2_cb, ptr noundef %10)
  %87 = icmp slt i32 %86, 0
  br i1 %87, label %88, label %103

88:                                               ; preds = %57
  br label %89

89:                                               ; preds = %88
  br label %90

90:                                               ; preds = %89
  br label %91

91:                                               ; preds = %90
  %92 = load i64, ptr @H5E_SYM_g, align 8
  %93 = load i64, ptr @H5E_CANTREMOVE_g, align 8
  %94 = call i32 (ptr, ptr, i32, i64, i64, ptr, ...) @H5E_printf_stack(ptr noundef @.str, ptr noundef @__func__.H5G__dense_remove, i32 noundef 1319, i64 noundef %92, i64 noundef %93, ptr noundef @.str.35)
  br label %95

95:                                               ; preds = %91
  store i8 1, ptr %13, align 1
  %96 = load i8, ptr %13, align 1
  %97 = trunc i8 %96 to i1
  %98 = zext i1 %97 to i8
  store i8 %98, ptr %13, align 1
  br label %99

99:                                               ; preds = %95
  br label %100

100:                                              ; preds = %99
  store i32 -1, ptr %12, align 4
  br label %104

101:                                              ; No predecessors!
  br label %102

102:                                              ; preds = %101
  br label %103

103:                                              ; preds = %102, %57
  br label %104

104:                                              ; preds = %103, %100, %54, %32
  %105 = load ptr, ptr %9, align 8
  %106 = icmp ne ptr %105, null
  br i1 %106, label %107, label %124

107:                                              ; preds = %104
  %108 = load ptr, ptr %9, align 8
  %109 = call i32 @H5HF_close(ptr noundef %108)
  %110 = icmp slt i32 %109, 0
  br i1 %110, label %111, label %124

111:                                              ; preds = %107
  br label %112

112:                                              ; preds = %111
  br label %113

113:                                              ; preds = %112
  br label %114

114:                                              ; preds = %113
  %115 = load i64, ptr @H5E_SYM_g, align 8
  %116 = load i64, ptr @H5E_CLOSEERROR_g, align 8
  %117 = call i32 (ptr, ptr, i32, i64, i64, ptr, ...) @H5E_printf_stack(ptr noundef @.str, ptr noundef @__func__.H5G__dense_remove, i32 noundef 1324, i64 noundef %115, i64 noundef %116, ptr noundef @.str.8)
  br label %118

118:                                              ; preds = %114
  store i8 1, ptr %13, align 1
  %119 = load i8, ptr %13, align 1
  %120 = trunc i8 %119 to i1
  %121 = zext i1 %120 to i8
  store i8 %121, ptr %13, align 1
  br label %122

122:                                              ; preds = %118
  store i32 -1, ptr %12, align 4
  br label %123

123:                                              ; preds = %122
  br label %124

124:                                              ; preds = %123, %107, %104
  %125 = load ptr, ptr %11, align 8
  %126 = icmp ne ptr %125, null
  br i1 %126, label %127, label %144

127:                                              ; preds = %124
  %128 = load ptr, ptr %11, align 8
  %129 = call i32 @H5B2_close(ptr noundef %128)
  %130 = icmp slt i32 %129, 0
  br i1 %130, label %131, label %144

131:                                              ; preds = %127
  br label %132

132:                                              ; preds = %131
  br label %133

133:                                              ; preds = %132
  br label %134

134:                                              ; preds = %133
  %135 = load i64, ptr @H5E_SYM_g, align 8
  %136 = load i64, ptr @H5E_CLOSEERROR_g, align 8
  %137 = call i32 (ptr, ptr, i32, i64, i64, ptr, ...) @H5E_printf_stack(ptr noundef @.str, ptr noundef @__func__.H5G__dense_remove, i32 noundef 1326, i64 noundef %135, i64 noundef %136, ptr noundef @.str.9)
  br label %138

138:                                              ; preds = %134
  store i8 1, ptr %13, align 1
  %139 = load i8, ptr %13, align 1
  %140 = trunc i8 %139 to i1
  %141 = zext i1 %140 to i8
  store i8 %141, ptr %13, align 1
  br label %142

142:                                              ; preds = %138
  store i32 -1, ptr %12, align 4
  br label %143

143:                                              ; preds = %142
  br label %144

144:                                              ; preds = %143, %127, %124
  %145 = load i32, ptr %12, align 4
  ret i32 %145
}