; Function Attrs: nounwind uwtable
define range(i32 -1, 1) i32 @H5G__dense_remove(ptr noundef %0, ptr nocapture noundef readonly %1, ptr noundef %2, ptr noundef %3) local_unnamed_addr #0 {
  %5 = alloca %struct.H5G_bt2_ud_rm_t, align 8
  %6 = getelementptr inbounds i8, ptr %1, i64 32
  %7 = load i64, ptr %6, align 8
  %8 = tail call ptr @H5HF_open(ptr noundef %0, i64 noundef %7) #8
  %9 = icmp eq ptr %8, null
  br i1 %9, label %.thread32, label %10

10:                                               ; preds = %4
  %11 = getelementptr inbounds i8, ptr %1, i64 40
  %12 = load i64, ptr %11, align 8
  %13 = tail call ptr @H5B2_open(ptr noundef %0, i64 noundef %12, ptr noundef null) #8
  %14 = icmp eq ptr %13, null
  br i1 %14, label %15, label %19

15:                                               ; preds = %10
  %16 = load i64, ptr @H5E_SYM_g, align 8
  %17 = load i64, ptr @H5E_CANTOPENOBJ_g, align 8
  %18 = tail call i32 (ptr, ptr, i32, i64, i64, ptr, ...) @H5E_printf_stack(ptr noundef nonnull @.str, ptr noundef nonnull @__func__.H5G__dense_remove, i32 noundef 1303, i64 noundef %16, i64 noundef %17, ptr noundef nonnull @.str.17) #8
  br label %41

19:                                               ; preds = %10
  store ptr %0, ptr %5, align 8
  %20 = getelementptr inbounds i8, ptr %5, i64 8
  store ptr %8, ptr %20, align 8
  %21 = getelementptr inbounds i8, ptr %5, i64 16
  store ptr %3, ptr %21, align 8
  %22 = tail call i64 @strlen(ptr noundef nonnull dereferenceable(1) %3) #9
  %23 = tail call i32 @H5_checksum_lookup3(ptr noundef %3, i64 noundef %22, i32 noundef 0) #8
  %24 = getelementptr inbounds i8, ptr %5, i64 24
  store i32 %23, ptr %24, align 8
  %25 = getelementptr inbounds i8, ptr %5, i64 40
  %26 = getelementptr inbounds i8, ptr %5, i64 56
  call void @llvm.memset.p0.i64(ptr noundef nonnull align 8 dereferenceable(16) %25, i8 0, i64 16, i1 false)
  store i8 1, ptr %26, align 8
  %27 = getelementptr inbounds i8, ptr %1, i64 16
  %28 = load i64, ptr %27, align 8
  %29 = getelementptr inbounds i8, ptr %5, i64 64
  store i64 %28, ptr %29, align 8
  %30 = getelementptr inbounds i8, ptr %5, i64 72
  store ptr %2, ptr %30, align 8
  %31 = getelementptr inbounds i8, ptr %5, i64 80
  store i8 1, ptr %31, align 8
  %32 = call i32 @H5B2_remove(ptr noundef nonnull %13, ptr noundef nonnull %5, ptr noundef nonnull @H5G__dense_remove_bt2_cb, ptr noundef nonnull %5) #8
  %33 = icmp slt i32 %32, 0
  br i1 %33, label %34, label %41

34:                                               ; preds = %19
  %35 = load i64, ptr @H5E_SYM_g, align 8
  %36 = load i64, ptr @H5E_CANTREMOVE_g, align 8
  %37 = call i32 (ptr, ptr, i32, i64, i64, ptr, ...) @H5E_printf_stack(ptr noundef nonnull @.str, ptr noundef nonnull @__func__.H5G__dense_remove, i32 noundef 1319, i64 noundef %35, i64 noundef %36, ptr noundef nonnull @.str.35) #8
  br label %41

.thread32:                                        ; preds = %4
  %38 = load i64, ptr @H5E_SYM_g, align 8
  %39 = load i64, ptr @H5E_CANTOPENOBJ_g, align 8
  %40 = tail call i32 (ptr, ptr, i32, i64, i64, ptr, ...) @H5E_printf_stack(ptr noundef nonnull @.str, ptr noundef nonnull @__func__.H5G__dense_remove, i32 noundef 1299, i64 noundef %38, i64 noundef %39, ptr noundef nonnull @.str.15) #8
  br label %56

41:                                               ; preds = %19, %34, %15
  %.0.ph = phi i32 [ 0, %19 ], [ -1, %34 ], [ -1, %15 ]
  %42 = call i32 @H5HF_close(ptr noundef nonnull %8) #8
  %43 = icmp slt i32 %42, 0
  br i1 %43, label %44, label %48

44:                                               ; preds = %41
  %45 = load i64, ptr @H5E_SYM_g, align 8
  %46 = load i64, ptr @H5E_CLOSEERROR_g, align 8
  %47 = call i32 (ptr, ptr, i32, i64, i64, ptr, ...) @H5E_printf_stack(ptr noundef nonnull @.str, ptr noundef nonnull @__func__.H5G__dense_remove, i32 noundef 1324, i64 noundef %45, i64 noundef %46, ptr noundef nonnull @.str.8) #8
  br label %48

48:                                               ; preds = %44, %41
  %.1 = phi i32 [ -1, %44 ], [ %.0.ph, %41 ]
  br i1 %14, label %56, label %49

49:                                               ; preds = %48
  %50 = call i32 @H5B2_close(ptr noundef nonnull %13) #8
  %51 = icmp slt i32 %50, 0
  br i1 %51, label %52, label %56

52:                                               ; preds = %49
  %53 = load i64, ptr @H5E_SYM_g, align 8
  %54 = load i64, ptr @H5E_CLOSEERROR_g, align 8
  %55 = call i32 (ptr, ptr, i32, i64, i64, ptr, ...) @H5E_printf_stack(ptr noundef nonnull @.str, ptr noundef nonnull @__func__.H5G__dense_remove, i32 noundef 1326, i64 noundef %53, i64 noundef %54, ptr noundef nonnull @.str.9) #8
  br label %56

56:                                               ; preds = %.thread32, %52, %49, %48
  %.2 = phi i32 [ -1, %52 ], [ %.1, %49 ], [ %.1, %48 ], [ -1, %.thread32 ]
  ret i32 %.2
}